target datalayout = "e-m:e-p270:32:32-p271:32:32-p272:64:64-i64:64-i128:128-f80:128-n8:16:32:64-S128"
target triple = "x86_64-pc-linux-gnu"

@.str.44 = private unnamed_addr constant [28 x i8] c"A JSON parse error occurred\00", align 1
@.str.45 = private unnamed_addr constant [36 x i8] c"A JSON Pointer parse error occurred\00", align 1
@.str.46 = private unnamed_addr constant [58 x i8] c"An error occurred when JSON Pointer was used with a value\00", align 1
@.str.47 = private unnamed_addr constant [36 x i8] c"An error occurred during conversion\00", align 1

; Function Attrs: mustprogress nounwind uwtable
define noundef ptr @_ZNK5boost4json6detail26error_condition_category_t7messageEiPcm(ptr noundef nonnull align 8 dereferenceable(52) %0, i32 noundef %1, ptr noundef %2, i64 noundef %3) unnamed_addr #2 align 2 {
  %5 = alloca ptr, align 8
  %6 = alloca ptr, align 8
  %7 = alloca i32, align 4
  %8 = alloca ptr, align 8
  %9 = alloca i64, align 8
  store ptr %0, ptr %6, align 8, !tbaa !3
  store i32 %1, ptr %7, align 4, !tbaa !7
  store ptr %2, ptr %8, align 8, !tbaa !3
  store i64 %3, ptr %9, align 8, !tbaa !16
  %10 = load i32, ptr %7, align 4, !tbaa !7
  switch i32 %10, label %11 [
    i32 1, label %12
    i32 2, label %13
    i32 3, label %14
    i32 4, label %15
  ]

11:                                               ; preds = %4
  br label %12

12:                                               ; preds = %4, %11
  store ptr @.str.44, ptr %5, align 8
  br label %16

13:                                               ; preds = %4
  store ptr @.str.45, ptr %5, align 8
  br label %16

14:                                               ; preds = %4
  store ptr @.str.46, ptr %5, align 8
  br label %16

15:                                               ; preds = %4
  store ptr @.str.47, ptr %5, align 8
  br label %16

16:                                               ; preds = %15, %14, %13, %12
  %17 = load ptr, ptr %5, align 8
  ret ptr %17
}