; Function Attrs: mustprogress nofree norecurse nosync nounwind willreturn memory(none) uwtable
define noundef nonnull ptr @_ZNK5boost4json6detail26error_condition_category_t7messageEiPcm(ptr nocapture nonnull readnone align 8 %0, i32 noundef %1, ptr nocapture readnone %2, i64 %3) unnamed_addr #9 align 2 {
  %switch.tableidx = add i32 %1, -2
  %5 = icmp ult i32 %switch.tableidx, 3
  br i1 %5, label %switch.lookup, label %7

switch.lookup:                                    ; preds = %4
  %6 = zext nneg i32 %switch.tableidx to i64
  %switch.gep = getelementptr inbounds [3 x ptr], ptr @switch.table._ZNK5boost4json6detail26error_condition_category_t7messageEiPcm, i64 0, i64 %6
  %switch.load = load ptr, ptr %switch.gep, align 8
  br label %7

7:                                                ; preds = %switch.lookup, %4
  %.0 = phi ptr [ @.str.44, %4 ], [ %switch.load, %switch.lookup ]
  ret ptr %.0
}